target datalayout = "e-m:e-p270:32:32-p271:32:32-p272:64:64-i64:64-i128:128-f80:128-n8:16:32:64-S128"
target triple = "x86_64-pc-linux-gnu"

%struct.ident_t = type { i32, i32, i32, i32, ptr }
%"class.std::_Function_base" = type { %"union.std::_Any_data", ptr }
%"union.std::_Any_data" = type { %"union.std::_Nocopy_types" }
%"union.std::_Nocopy_types" = type { { i64, i64 } }
%"class.std::function.235" = type { %"class.std::_Function_base", ptr }

@1 = private unnamed_addr constant %struct.ident_t { i32 0, i32 514, i32 0, i32 22, ptr @0 }, align 8
@_ZTISt9exception = external constant ptr

; Function Attrs: mustprogress nounwind uwtable
define linkonce_odr noundef zeroext i1 @_ZNKSt14_Function_base8_M_emptyEv(ptr noundef nonnull align 8 dereferenceable(24) %0) #0 comdat align 2 {
  %2 = alloca ptr, align 8
  store ptr %0, ptr %2, align 8, !tbaa !784
  %3 = load ptr, ptr %2, align 8
  %4 = getelementptr inbounds nuw %"class.std::_Function_base", ptr %3, i32 0, i32 1
  %5 = load ptr, ptr %4, align 8, !tbaa !783
  %6 = icmp ne ptr %5, null
  %7 = xor i1 %6, true
  ret i1 %7
}

; Function Attrs: mustprogress uwtable
define linkonce_odr void @_ZNKSt8functionIFvimmEEclEimm(ptr noundef nonnull align 8 dereferenceable(32) %0, i32 noundef %1, i64 noundef %2, i64 noundef %3) #1 comdat align 2 {
  %5 = alloca ptr, align 8
  %6 = alloca i32, align 4
  %7 = alloca i64, align 8
  %8 = alloca i64, align 8
  store ptr %0, ptr %5, align 8, !tbaa !779
  store i32 %1, ptr %6, align 4, !tbaa !149
  store i64 %2, ptr %7, align 8, !tbaa !150
  store i64 %3, ptr %8, align 8, !tbaa !150
  %9 = load ptr, ptr %5, align 8
  %10 = call noundef zeroext i1 @_ZNKSt14_Function_base8_M_emptyEv(ptr noundef nonnull align 8 dereferenceable(24) %9)
  br i1 %10, label %11, label %12

11:                                               ; preds = %4
  call void @_ZSt25__throw_bad_function_callv() #26
  unreachable

12:                                               ; preds = %4
  %13 = getelementptr inbounds nuw %"class.std::function.235", ptr %9, i32 0, i32 1
  %14 = load ptr, ptr %13, align 8, !tbaa !781
  %15 = getelementptr inbounds nuw %"class.std::_Function_base", ptr %9, i32 0, i32 0
  call void %14(ptr noundef nonnull align 8 dereferenceable(16) %15, ptr noundef nonnull align 4 dereferenceable(4) %6, ptr noundef nonnull align 8 dereferenceable(8) %7, ptr noundef nonnull align 8 dereferenceable(8) %8)
  ret void
}

; Function Attrs: inlinehint mustprogress nounwind uwtable
define linkonce_odr noundef nonnull align 8 dereferenceable(8) ptr @_ZSt3minImERKT_S2_S2_(ptr noundef nonnull align 8 dereferenceable(8) %0, ptr noundef nonnull align 8 dereferenceable(8) %1) #4 comdat {
  %3 = alloca ptr, align 8
  %4 = alloca ptr, align 8
  %5 = alloca ptr, align 8
  store ptr %0, ptr %4, align 8, !tbaa !269
  store ptr %1, ptr %5, align 8, !tbaa !269
  %6 = load ptr, ptr %5, align 8, !tbaa !269
  %7 = load i64, ptr %6, align 8, !tbaa !150
  %8 = load ptr, ptr %4, align 8, !tbaa !269
  %9 = load i64, ptr %8, align 8, !tbaa !150
  %10 = icmp ult i64 %7, %9
  br i1 %10, label %11, label %13

11:                                               ; preds = %2
  %12 = load ptr, ptr %5, align 8, !tbaa !269
  store ptr %12, ptr %3, align 8
  br label %15

13:                                               ; preds = %2
  %14 = load ptr, ptr %4, align 8, !tbaa !269
  store ptr %14, ptr %3, align 8
  br label %15

15:                                               ; preds = %13, %11
  %16 = load ptr, ptr %3, align 8
  ret ptr %16
}

; Function Attrs: alwaysinline norecurse nounwind uwtable
define internal void @_ZN8LightGBM9Threading3ForImEEiT_S2_S2_RKSt8functionIFviS2_S2_EE.omp_outlined(ptr noalias noundef %0, ptr noalias noundef %1, ptr noundef nonnull align 4 dereferenceable(4) %2, ptr noundef nonnull align 8 dereferenceable(8) %3, ptr noundef nonnull align 8 dereferenceable(8) %4, ptr noundef nonnull align 8 dereferenceable(8) %5, ptr noundef nonnull align 8 dereferenceable(32) %6, ptr noundef nonnull align 8 dereferenceable(48) %7) #20 personality ptr @__gxx_personality_v0 {
  %9 = alloca ptr, align 8
  %10 = alloca ptr, align 8
  %11 = alloca ptr, align 8
  %12 = alloca ptr, align 8
  %13 = alloca ptr, align 8
  %14 = alloca ptr, align 8
  %15 = alloca ptr, align 8
  %16 = alloca ptr, align 8
  %17 = alloca ptr, align 8
  %18 = alloca i32, align 4
  %19 = alloca i32, align 4
  %20 = alloca i32, align 4
  %21 = alloca i32, align 4
  %22 = alloca i32, align 4
  %23 = alloca i32, align 4
  %24 = alloca i32, align 4
  %25 = alloca i32, align 4
  %26 = alloca i32, align 4
  %27 = alloca i64, align 8
  %28 = alloca i64, align 8
  %29 = alloca i64, align 8
  %30 = alloca ptr, align 8
  %31 = alloca i32, align 4
  %32 = alloca ptr, align 8
  store ptr %0, ptr %9, align 8, !tbaa !180
  store ptr %1, ptr %10, align 8, !tbaa !180
  store ptr %2, ptr %11, align 8, !tbaa !180
  store ptr %3, ptr %12, align 8, !tbaa !269
  store ptr %4, ptr %13, align 8, !tbaa !269
  store ptr %5, ptr %14, align 8, !tbaa !269
  store ptr %6, ptr %15, align 8, !tbaa !779
  store ptr %7, ptr %16, align 8, !tbaa !521
  %33 = load ptr, ptr %11, align 8, !tbaa !180
  %34 = load ptr, ptr %12, align 8, !tbaa !269
  %35 = load ptr, ptr %13, align 8, !tbaa !269
  %36 = load ptr, ptr %14, align 8, !tbaa !269
  %37 = load ptr, ptr %15, align 8, !tbaa !779
  %38 = load ptr, ptr %16, align 8, !tbaa !521
  store ptr %37, ptr %17, align 8
  call void @llvm.lifetime.start.p0(i64 4, ptr %18) #7
  call void @llvm.lifetime.start.p0(i64 4, ptr %19) #7
  %39 = load i32, ptr %33, align 4, !tbaa !149
  store i32 %39, ptr %19, align 4, !tbaa !149
  call void @llvm.lifetime.start.p0(i64 4, ptr %20) #7
  %40 = load i32, ptr %19, align 4, !tbaa !149
  %41 = sub nsw i32 %40, 0
  %42 = sdiv i32 %41, 1
  %43 = sub nsw i32 %42, 1
  store i32 %43, ptr %20, align 4, !tbaa !149
  call void @llvm.lifetime.start.p0(i64 4, ptr %21) #7
  store i32 0, ptr %21, align 4, !tbaa !149
  call void @llvm.lifetime.end.p0(i64 4, ptr %21) #7
  %44 = load i32, ptr %19, align 4, !tbaa !149
  %45 = icmp slt i32 0, %44
  br i1 %45, label %46, label %136

46:                                               ; preds = %8
  call void @llvm.lifetime.start.p0(i64 4, ptr %22) #7
  store i32 0, ptr %22, align 4, !tbaa !149
  call void @llvm.lifetime.start.p0(i64 4, ptr %23) #7
  %47 = load i32, ptr %20, align 4, !tbaa !149
  store i32 %47, ptr %23, align 4, !tbaa !149
  call void @llvm.lifetime.start.p0(i64 4, ptr %24) #7
  store i32 1, ptr %24, align 4, !tbaa !149
  call void @llvm.lifetime.start.p0(i64 4, ptr %25) #7
  store i32 0, ptr %25, align 4, !tbaa !149
  call void @llvm.lifetime.start.p0(i64 4, ptr %26) #7
  %48 = load ptr, ptr %9, align 8
  %49 = load i32, ptr %48, align 4, !tbaa !149
  call void @__kmpc_for_static_init_4(ptr @1, i32 %49, i32 33, ptr %25, ptr %22, ptr %23, ptr %24, i32 1, i32 1)
  br label %50

50:                                               ; preds = %126, %46
  %51 = load i32, ptr %23, align 4, !tbaa !149
  %52 = load i32, ptr %20, align 4, !tbaa !149
  %53 = icmp sgt i32 %51, %52
  br i1 %53, label %54, label %56

54:                                               ; preds = %50
  %55 = load i32, ptr %20, align 4, !tbaa !149
  br label %58

56:                                               ; preds = %50
  %57 = load i32, ptr %23, align 4, !tbaa !149
  br label %58

58:                                               ; preds = %56, %54
  %59 = phi i32 [ %55, %54 ], [ %57, %56 ]
  store i32 %59, ptr %23, align 4, !tbaa !149
  %60 = load i32, ptr %22, align 4, !tbaa !149
  store i32 %60, ptr %18, align 4, !tbaa !149
  %61 = load i32, ptr %18, align 4, !tbaa !149
  %62 = load i32, ptr %23, align 4, !tbaa !149
  %63 = icmp sle i32 %61, %62
  br i1 %63, label %65, label %64

64:                                               ; preds = %58
  br label %133

65:                                               ; preds = %58
  br label %66

66:                                               ; preds = %116, %65
  %67 = load i32, ptr %18, align 4, !tbaa !149
  %68 = load i32, ptr %23, align 4, !tbaa !149
  %69 = icmp sle i32 %67, %68
  br i1 %69, label %71, label %70

70:                                               ; preds = %66
  br label %125

71:                                               ; preds = %66
  %72 = load i32, ptr %18, align 4, !tbaa !149
  %73 = mul nsw i32 %72, 1
  %74 = add nsw i32 0, %73
  store i32 %74, ptr %26, align 4, !tbaa !149
  call void @llvm.lifetime.start.p0(i64 8, ptr %27) #7
  %75 = load i64, ptr %34, align 8, !tbaa !150
  %76 = load i64, ptr %35, align 8, !tbaa !150
  %77 = load i32, ptr %26, align 4, !tbaa !149
  %78 = sext i32 %77 to i64
  %79 = mul i64 %76, %78
  %80 = add i64 %75, %79
  store i64 %80, ptr %27, align 8, !tbaa !150
  call void @llvm.lifetime.start.p0(i64 8, ptr %28) #7
  call void @llvm.lifetime.start.p0(i64 8, ptr %29) #7
  %81 = load i64, ptr %27, align 8, !tbaa !150
  %82 = load i64, ptr %35, align 8, !tbaa !150
  %83 = add i64 %81, %82
  store i64 %83, ptr %29, align 8, !tbaa !150
  %84 = call noundef nonnull align 8 dereferenceable(8) ptr @_ZSt3minImERKT_S2_S2_(ptr noundef nonnull align 8 dereferenceable(8) %36, ptr noundef nonnull align 8 dereferenceable(8) %29)
  %85 = load i64, ptr %84, align 8, !tbaa !150
  call void @llvm.lifetime.end.p0(i64 8, ptr %29) #7
  store i64 %85, ptr %28, align 8, !tbaa !150
  %86 = load i64, ptr %27, align 8, !tbaa !150
  %87 = load i64, ptr %28, align 8, !tbaa !150
  %88 = icmp ult i64 %86, %87
  br i1 %88, label %89, label %124

89:                                               ; preds = %71
  %90 = load ptr, ptr %17, align 8, !tbaa !779
  %91 = load i32, ptr %26, align 4, !tbaa !149
  %92 = load i64, ptr %27, align 8, !tbaa !150
  %93 = load i64, ptr %28, align 8, !tbaa !150
  invoke void @_ZNKSt8functionIFvimmEEclEimm(ptr noundef nonnull align 8 dereferenceable(32) %90, i32 noundef %91, i64 noundef %92, i64 noundef %93)
          to label %94 unwind label %95

94:                                               ; preds = %89
  br label %124

95:                                               ; preds = %89
  %96 = landingpad { ptr, i32 }
          catch ptr @_ZTISt9exception
          catch ptr null
  %97 = extractvalue { ptr, i32 } %96, 0
  store ptr %97, ptr %30, align 8
  %98 = extractvalue { ptr, i32 } %96, 1
  store i32 %98, ptr %31, align 4
  call void @llvm.lifetime.end.p0(i64 8, ptr %28) #7
  call void @llvm.lifetime.end.p0(i64 8, ptr %27) #7
  br label %99

99:                                               ; preds = %95
  %100 = load i32, ptr %31, align 4
  %101 = call i32 @llvm.eh.typeid.for.p0(ptr @_ZTISt9exception) #7
  %102 = icmp eq i32 %100, %101
  br i1 %102, label %103, label %119

103:                                              ; preds = %99
  call void @llvm.lifetime.start.p0(i64 8, ptr %32) #7
  %104 = load ptr, ptr %30, align 8
  %105 = call ptr @__cxa_begin_catch(ptr %104) #7
  store ptr %105, ptr %32, align 8
  %106 = load ptr, ptr %32, align 8, !tbaa !524
  %107 = load ptr, ptr %106, align 8, !tbaa !175
  %108 = getelementptr inbounds ptr, ptr %107, i64 2
  %109 = load ptr, ptr %108, align 8
  %110 = call noundef ptr %109(ptr noundef nonnull align 8 dereferenceable(8) %106) #7
  invoke void (ptr, ...) @_ZN8LightGBM3Log7WarningEPKcz(ptr noundef %110)
          to label %111 unwind label %137

111:                                              ; preds = %103
  invoke void @_ZN21ThreadExceptionHelper16CaptureExceptionEv(ptr noundef nonnull align 8 dereferenceable(48) %38)
          to label %112 unwind label %137

112:                                              ; preds = %111
  invoke void @__cxa_end_catch()
          to label %113 unwind label %137

113:                                              ; preds = %112
  call void @llvm.lifetime.end.p0(i64 8, ptr %32) #7
  br label %114

114:                                              ; preds = %113, %123, %124
  br label %115

115:                                              ; preds = %114
  br label %116

116:                                              ; preds = %115
  %117 = load i32, ptr %18, align 4, !tbaa !149
  %118 = add nsw i32 %117, 1
  store i32 %118, ptr %18, align 4, !tbaa !149
  br label %66

119:                                              ; preds = %99
  %120 = load ptr, ptr %30, align 8
  %121 = call ptr @__cxa_begin_catch(ptr %120) #7
  invoke void @_ZN21ThreadExceptionHelper16CaptureExceptionEv(ptr noundef nonnull align 8 dereferenceable(48) %38)
          to label %122 unwind label %137

122:                                              ; preds = %119
  invoke void @__cxa_end_catch()
          to label %123 unwind label %137

123:                                              ; preds = %122
  br label %114

124:                                              ; preds = %94, %71
  call void @llvm.lifetime.end.p0(i64 8, ptr %28) #7
  call void @llvm.lifetime.end.p0(i64 8, ptr %27) #7
  br label %114

125:                                              ; preds = %70
  br label %126

126:                                              ; preds = %125
  %127 = load i32, ptr %22, align 4, !tbaa !149
  %128 = load i32, ptr %24, align 4, !tbaa !149
  %129 = add nsw i32 %127, %128
  store i32 %129, ptr %22, align 4, !tbaa !149
  %130 = load i32, ptr %23, align 4, !tbaa !149
  %131 = load i32, ptr %24, align 4, !tbaa !149
  %132 = add nsw i32 %130, %131
  store i32 %132, ptr %23, align 4, !tbaa !149
  br label %50

133:                                              ; preds = %64
  %134 = load ptr, ptr %9, align 8
  %135 = load i32, ptr %134, align 4, !tbaa !149
  call void @__kmpc_for_static_fini(ptr @1, i32 %135)
  call void @llvm.lifetime.end.p0(i64 4, ptr %26) #7
  call void @llvm.lifetime.end.p0(i64 4, ptr %25) #7
  call void @llvm.lifetime.end.p0(i64 4, ptr %24) #7
  call void @llvm.lifetime.end.p0(i64 4, ptr %23) #7
  call void @llvm.lifetime.end.p0(i64 4, ptr %22) #7
  br label %136

136:                                              ; preds = %133, %8
  call void @llvm.lifetime.end.p0(i64 4, ptr %20) #7
  call void @llvm.lifetime.end.p0(i64 4, ptr %19) #7
  call void @llvm.lifetime.end.p0(i64 4, ptr %18) #7
  ret void

137:                                              ; preds = %112, %111, %103, %122, %119
  %138 = landingpad { ptr, i32 }
          catch ptr null
  %139 = extractvalue { ptr, i32 } %138, 0
  call void @__clang_call_terminate(ptr %139) #27
  unreachable
}